; ModuleID = '61/870.c'
source_filename = "61/870.c"
target datalayout = "e-m:e-p270:32:32-p271:32:32-p272:64:64-i64:64-f80:128-n8:16:32:64-S128"
target triple = "x86_64-pc-linux-gnu"

@.str = private unnamed_addr constant [3 x i8] c"%d\00", align 1
@.str.1 = private unnamed_addr constant [4 x i8] c"%d\0A\00", align 1

; Function Attrs: noinline nounwind uwtable
define dso_local i32 @main() #0 {
  %1 = alloca i32, align 4
  %2 = alloca i32, align 4
  %3 = alloca i32, align 4
  %4 = alloca i32, align 4
  store i32 0, i32* %1, align 4
  %5 = call i32 (i8*, ...) @__isoc99_scanf(i8* getelementptr inbounds ([3 x i8], [3 x i8]* @.str, i64 0, i64 0), i32* %2)
  store i32 0, i32* %4, align 4
  br label %6

6:                                                ; preds = %15, %0
  %7 = load i32, i32* %4, align 4
  %8 = load i32, i32* %2, align 4
  %9 = icmp slt i32 %7, %8
  br i1 %9, label %10, label %18

10:                                               ; preds = %6
  %11 = call i32 (i8*, ...) @__isoc99_scanf(i8* getelementptr inbounds ([3 x i8], [3 x i8]* @.str, i64 0, i64 0), i32* %3)
  %12 = load i32, i32* %3, align 4
  %13 = call i32 @fun(i32 %12)
  %14 = call i32 (i8*, ...) @printf(i8* getelementptr inbounds ([4 x i8], [4 x i8]* @.str.1, i64 0, i64 0), i32 %13)
  br label %15

15:                                               ; preds = %10
  %16 = load i32, i32* %4, align 4
  %17 = add nsw i32 %16, 1
  store i32 %17, i32* %4, align 4
  br label %6

18:                                               ; preds = %6
  %19 = call i32 @getchar()
  %20 = call i32 @getchar()
  %21 = load i32, i32* %1, align 4
  ret i32 %21
}

declare dso_local i32 @__isoc99_scanf(i8*, ...) #1

declare dso_local i32 @printf(i8*, ...) #1

; Function Attrs: noinline nounwind uwtable
define dso_local i32 @fun(i32 %0) #0 {
  %2 = alloca i32, align 4
  %3 = alloca i32, align 4
  %4 = alloca i32, align 4
  store i32 %0, i32* %3, align 4
  %5 = load i32, i32* %3, align 4
  %6 = icmp eq i32 %5, 1
  br i1 %6, label %10, label %7

7:                                                ; preds = %1
  %8 = load i32, i32* %3, align 4
  %9 = icmp eq i32 %8, 2
  br i1 %9, label %10, label %11

10:                                               ; preds = %7, %1
  store i32 1, i32* %2, align 4
  br label %20

11:                                               ; preds = %7
  store i32 0, i32* %4, align 4
  %12 = load i32, i32* %3, align 4
  %13 = sub nsw i32 %12, 1
  %14 = call i32 @fun(i32 %13)
  %15 = load i32, i32* %3, align 4
  %16 = sub nsw i32 %15, 2
  %17 = call i32 @fun(i32 %16)
  %18 = add nsw i32 %14, %17
  store i32 %18, i32* %4, align 4
  %19 = load i32, i32* %4, align 4
  store i32 %19, i32* %2, align 4
  br label %20

20:                                               ; preds = %11, %10
  %21 = load i32, i32* %2, align 4
  ret i32 %21
}

declare dso_local i32 @getchar() #1


!llvm.module.flags = !{!0}
!llvm.ident = !{!1}

!0 = !{i32 1, !"wchar_size", i32 4}
!1 = !{!"clang version 10.0.0-4ubuntu1 "}
